; Function Attrs: mustprogress uwtable
define internal noundef zeroext i1 @_ZNK12_GLOBAL__N_116itanium_demangle24ForwardTemplateReference19hasRHSComponentSlowERNS0_12OutputBufferE(ptr noundef nonnull align 8 captures(none) dereferenceable(33) %0, ptr noundef nonnull align 8 dereferenceable(44) %1) unnamed_addr #2 align 2 personality ptr @__gxx_personality_v0 {
  %3 = getelementptr inbounds nuw i8, ptr %0, i64 32
  %4 = load i8, ptr %3, align 8, !tbaa !339, !range !232, !noundef !233
  %5 = trunc nuw i8 %4 to i1
  br i1 %5, label %20, label %6

6:                                                ; preds = %2
  store i8 1, ptr %3, align 8, !tbaa !231
  %7 = getelementptr inbounds nuw i8, ptr %0, i64 24
  %8 = load ptr, ptr %7, align 8, !tbaa !337
  %9 = getelementptr inbounds nuw i8, ptr %8, i64 9
  %10 = load i16, ptr %9, align 1
  %11 = trunc i16 %10 to i8
  %.not.i = icmp slt i8 %11, -64
  br i1 %.not.i, label %14, label %12

12:                                               ; preds = %6
  %13 = icmp ult i8 %11, 64
  br label %_ZNK12_GLOBAL__N_116itanium_demangle4Node15hasRHSComponentERNS0_12OutputBufferE.exit

14:                                               ; preds = %6
  %15 = load ptr, ptr %8, align 8, !tbaa !214
  %16 = load ptr, ptr %15, align 8
  %17 = invoke noundef zeroext i1 %16(ptr noundef nonnull align 8 dereferenceable(11) %8, ptr noundef nonnull align 8 dereferenceable(44) %1)
          to label %_ZNK12_GLOBAL__N_116itanium_demangle4Node15hasRHSComponentERNS0_12OutputBufferE.exit unwind label %18

_ZNK12_GLOBAL__N_116itanium_demangle4Node15hasRHSComponentERNS0_12OutputBufferE.exit: ; preds = %12, %14
  %.0.i = phi i1 [ %13, %12 ], [ %17, %14 ]
  store i8 %4, ptr %3, align 8, !tbaa !231
  br label %20

18:                                               ; preds = %14
  %19 = landingpad { ptr, i32 }
          cleanup
  store i8 %4, ptr %3, align 8, !tbaa !231
  resume { ptr, i32 } %19

20:                                               ; preds = %2, %_ZNK12_GLOBAL__N_116itanium_demangle4Node15hasRHSComponentERNS0_12OutputBufferE.exit
  %.0 = phi i1 [ %.0.i, %_ZNK12_GLOBAL__N_116itanium_demangle4Node15hasRHSComponentERNS0_12OutputBufferE.exit ], [ false, %2 ]
  ret i1 %.0
}